#include <math.h>
#include <stdio.h>
#include <stdlib.h>
#include <string.h>

main()
{
      int n,i,j,a,b;
      a=1;
      scanf("%d",&n);
      for(i=2;i<=n;i++)
      {
                       
                       int m=(int)sqrt(i);
                       for(j=2;j<=m;j++)
                       {
                                          if(i%j==0) break;
                       }
                       if(j==m+1)
                       {
                                 if(i==a+2)
                                 {
                                           printf("%d %d\n",a,i);
                                 }
                                 a=i;
                       }
      }
      if(a<5) 
      {
              printf("empty");
      }
      getchar();
      getchar();
      getchar();
      getchar();
      
      
} 