; ModuleID = '60/614.c'
source_filename = "60/614.c"
target datalayout = "e-m:e-p270:32:32-p271:32:32-p272:64:64-i64:64-f80:128-n8:16:32:64-S128"
target triple = "x86_64-pc-linux-gnu"

@.str = private unnamed_addr constant [3 x i8] c"%d\00", align 1
@.str.1 = private unnamed_addr constant [7 x i8] c"%d %d\0A\00", align 1
@.str.2 = private unnamed_addr constant [6 x i8] c"empty\00", align 1

; Function Attrs: noinline nounwind uwtable
define dso_local i32 @main() #0 {
  %1 = alloca i32, align 4
  %2 = alloca i32, align 4
  %3 = alloca i32, align 4
  %4 = alloca i32, align 4
  %5 = alloca i32, align 4
  %6 = alloca i32, align 4
  %7 = alloca i32, align 4
  store i32 0, i32* %1, align 4
  store i32 1, i32* %5, align 4
  %8 = call i32 (i8*, ...) @__isoc99_scanf(i8* getelementptr inbounds ([3 x i8], [3 x i8]* @.str, i64 0, i64 0), i32* %2)
  store i32 2, i32* %3, align 4
  br label %9

9:                                                ; preds = %49, %0
  %10 = load i32, i32* %3, align 4
  %11 = load i32, i32* %2, align 4
  %12 = icmp sle i32 %10, %11
  br i1 %12, label %13, label %52

13:                                               ; preds = %9
  %14 = load i32, i32* %3, align 4
  %15 = sitofp i32 %14 to double
  %16 = call double @sqrt(double %15) #3
  %17 = fptosi double %16 to i32
  store i32 %17, i32* %7, align 4
  store i32 2, i32* %4, align 4
  br label %18

18:                                               ; preds = %29, %13
  %19 = load i32, i32* %4, align 4
  %20 = load i32, i32* %7, align 4
  %21 = icmp sle i32 %19, %20
  br i1 %21, label %22, label %32

22:                                               ; preds = %18
  %23 = load i32, i32* %3, align 4
  %24 = load i32, i32* %4, align 4
  %25 = srem i32 %23, %24
  %26 = icmp eq i32 %25, 0
  br i1 %26, label %27, label %28

27:                                               ; preds = %22
  br label %32

28:                                               ; preds = %22
  br label %29

29:                                               ; preds = %28
  %30 = load i32, i32* %4, align 4
  %31 = add nsw i32 %30, 1
  store i32 %31, i32* %4, align 4
  br label %18

32:                                               ; preds = %27, %18
  %33 = load i32, i32* %4, align 4
  %34 = load i32, i32* %7, align 4
  %35 = add nsw i32 %34, 1
  %36 = icmp eq i32 %33, %35
  br i1 %36, label %37, label %48

37:                                               ; preds = %32
  %38 = load i32, i32* %3, align 4
  %39 = load i32, i32* %5, align 4
  %40 = add nsw i32 %39, 2
  %41 = icmp eq i32 %38, %40
  br i1 %41, label %42, label %46

42:                                               ; preds = %37
  %43 = load i32, i32* %5, align 4
  %44 = load i32, i32* %3, align 4
  %45 = call i32 (i8*, ...) @printf(i8* getelementptr inbounds ([7 x i8], [7 x i8]* @.str.1, i64 0, i64 0), i32 %43, i32 %44)
  br label %46

46:                                               ; preds = %42, %37
  %47 = load i32, i32* %3, align 4
  store i32 %47, i32* %5, align 4
  br label %48

48:                                               ; preds = %46, %32
  br label %49

49:                                               ; preds = %48
  %50 = load i32, i32* %3, align 4
  %51 = add nsw i32 %50, 1
  store i32 %51, i32* %3, align 4
  br label %9

52:                                               ; preds = %9
  %53 = load i32, i32* %5, align 4
  %54 = icmp slt i32 %53, 5
  br i1 %54, label %55, label %57

55:                                               ; preds = %52
  %56 = call i32 (i8*, ...) @printf(i8* getelementptr inbounds ([6 x i8], [6 x i8]* @.str.2, i64 0, i64 0))
  br label %57

57:                                               ; preds = %55, %52
  %58 = call i32 @getchar()
  %59 = call i32 @getchar()
  %60 = call i32 @getchar()
  %61 = call i32 @getchar()
  %62 = load i32, i32* %1, align 4
  ret i32 %62
}

declare dso_local i32 @__isoc99_scanf(i8*, ...) #1

; Function Attrs: nounwind
declare dso_local double @sqrt(double) #2

declare dso_local i32 @printf(i8*, ...) #1

declare dso_local i32 @getchar() #1


!llvm.module.flags = !{!0}
!llvm.ident = !{!1}

!0 = !{i32 1, !"wchar_size", i32 4}
!1 = !{!"clang version 10.0.0-4ubuntu1 "}
